Certificate:
    Data:
        Version: 3 (0x2)
        Serial Number: 0 (0x0)
        Signature Algorithm: sha1WithRSAEncryption
        Issuer: CN=ARMS Root CA
        Validity
            Not Before: May 23 04:42:12 2007 GMT
            Not After : Jun 14 04:42:12 2037 GMT
        Subject: CN=ARMS Root CA
        Subject Public Key Info:
            Public Key Algorithm: rsaEncryption
            RSA Public Key: (2048 bit)
                Modulus (2048 bit):
                    00:c9:45:ac:82:e9:26:20:f3:de:f0:a7:07:f9:e9:
                    47:df:7e:d5:69:18:6b:62:60:e8:bc:2c:ee:3f:2f:
                    d9:67:3d:a3:30:ed:bf:4f:f2:bd:f4:51:b5:f2:d0:
                    07:d7:ac:7c:d0:1d:20:69:74:74:d5:a2:91:4e:35:
                    3e:9d:32:17:76:90:8c:af:14:0c:37:af:c1:ff:95:
                    12:b4:56:62:03:57:e7:44:dd:8f:eb:44:57:41:d4:
                    fd:d3:61:0a:02:ae:95:04:b0:32:5e:43:fd:db:73:
                    47:ff:53:0c:82:82:6f:65:6a:28:0c:0f:ab:06:a8:
                    4b:85:04:59:bb:a2:f1:5f:a7:fc:b6:46:d3:75:40:
                    a8:02:04:61:8a:6f:3e:b3:75:28:1f:a8:6d:01:c0:
                    84:88:0a:3a:95:10:13:36:96:d3:ab:f7:7a:41:1e:
                    b9:48:f5:bb:44:47:53:8f:ec:2c:02:bd:a8:47:87:
                    05:21:82:c5:23:ed:44:b7:98:fa:dd:00:74:e5:59:
                    bf:62:c9:dd:fe:11:db:2d:c6:c4:99:65:16:5a:e2:
                    22:41:f9:fd:8e:21:57:1b:d3:6a:3e:43:d6:da:1d:
                    bf:08:65:6c:27:63:41:22:fa:b8:19:41:90:cd:58:
                    b3:8c:5c:b2:ec:12:e3:c6:96:3e:83:1e:04:53:39:
                    74:79
                Exponent: 65537 (0x10001)
        X509v3 extensions:
            X509v3 Basic Constraints: 
                CA:TRUE
            X509v3 Key Usage: 
                Certificate Sign, CRL Sign
    Signature Algorithm: sha1WithRSAEncryption
        4f:78:c8:1e:54:82:22:8a:92:0c:ca:94:fb:68:f7:1f:c9:a0:
        ee:00:90:f2:30:5a:c0:10:11:94:09:00:d5:c2:dd:60:e8:eb:
        65:25:be:40:b7:f3:77:95:77:3c:53:5e:3d:3f:5d:54:bb:bf:
        a5:31:eb:1c:11:26:ac:b1:79:d4:55:5d:83:34:ea:d7:de:eb:
        fa:27:0d:87:dd:f8:6a:69:5b:e7:3c:ed:e1:96:02:6a:8e:3a:
        84:d5:b5:59:24:10:3b:23:b1:fc:67:49:36:06:f1:40:bb:71:
        2f:99:3f:5d:59:a6:f2:5a:da:96:dd:45:bf:7e:15:d5:e5:bc:
        89:ff:fd:09:11:c1:a8:5a:fd:6c:c6:31:b7:fe:33:62:67:76:
        21:5f:46:71:cc:84:c0:99:66:d1:22:96:a5:8c:4a:bf:9a:0c:
        e0:02:3e:c6:10:80:5a:16:71:fa:ae:96:2c:21:26:84:02:c1:
        50:8a:52:16:39:f6:48:18:7c:f9:0d:54:63:a9:0e:f4:20:08:
        25:c4:34:44:47:b6:dd:c7:dd:77:d7:67:21:6a:6c:4a:a3:e7:
        46:8a:1f:31:b1:66:7b:9e:d9:0a:00:4c:19:ce:c9:a0:9f:e6:
        42:0c:e2:50:2b:9b:76:a4:07:be:f2:47:65:e2:85:4c:a4:e3:
        1b:ef:c8:4c
-----BEGIN CERTIFICATE-----
MIICxjCCAa6gAwIBAgIBADANBgkqhkiG9w0BAQUFADAXMRUwEwYDVQQDEwxBUk1T
IFJvb3QgQ0EwHhcNMDcwNTIzMDQ0MjEyWhcNMzcwNjE0MDQ0MjEyWjAXMRUwEwYD
VQQDEwxBUk1TIFJvb3QgQ0EwggEiMA0GCSqGSIb3DQEBAQUAA4IBDwAwggEKAoIB
AQDJRayC6SYg897wpwf56UffftVpGGtiYOi8LO4/L9lnPaMw7b9P8r30UbXy0AfX
rHzQHSBpdHTVopFONT6dMhd2kIyvFAw3r8H/lRK0VmIDV+dE3Y/rRFdB1P3TYQoC
rpUEsDJeQ/3bc0f/UwyCgm9laigMD6sGqEuFBFm7ovFfp/y2RtN1QKgCBGGKbz6z
dSgfqG0BwISICjqVEBM2ltOr93pBHrlI9btER1OP7CwCvahHhwUhgsUj7US3mPrd
AHTlWb9iyd3+EdstxsSZZRZa4iJB+f2OIVcb02o+Q9baHb8IZWwnY0Ei+rgZQZDN
WLOMXLLsEuPGlj6DHgRTOXR5AgMBAAGjHTAbMAwGA1UdEwQFMAMBAf8wCwYDVR0P
BAQDAgEGMA0GCSqGSIb3DQEBBQUAA4IBAQBPeMgeVIIiipIMypT7aPcfyaDuAJDy
MFrAEBGUCQDVwt1g6OtlJb5At/N3lXc8U149P11Uu7+lMescESassXnUVV2DNOrX
3uv6Jw2H3fhqaVvnPO3hlgJqjjqE1bVZJBA7I7H8Z0k2BvFAu3EvmT9dWabyWtqW
3UW/fhXV5byJ//0JEcGoWv1sxjG3/jNiZ3YhX0ZxzITAmWbRIpaljEq/mgzgAj7G
EIBaFnH6rpYsISaEAsFQilIWOfZIGHz5DVRjqQ70IAglxDRER7bdx91312chamxK
o+dGih8xsWZ7ntkKAEwZzsmgn+ZCDOJQK5t2pAe+8kdl4oVMpOMb78hM
-----END CERTIFICATE-----
